target datalayout = "e-m:e-p270:32:32-p271:32:32-p272:64:64-i64:64-i128:128-f80:128-n8:16:32:64-S128"
target triple = "x86_64-unknown-linux-gnu"

%"class.node::quic::QuicError" = type { %"class.node::MemoryRetainer", %"class.std::__cxx11::basic_string", %struct.ngtcp2_connection_close_error, ptr }
%"class.node::MemoryRetainer" = type { ptr }
%"class.std::__cxx11::basic_string" = type { %"struct.std::__cxx11::basic_string<char>::_Alloc_hider", i64, %union.anon.98 }
%"struct.std::__cxx11::basic_string<char>::_Alloc_hider" = type { ptr }
%union.anon.98 = type { i64, [8 x i8] }
%struct.ngtcp2_connection_close_error = type { i32, i64, i64, ptr, i64 }
%"class.std::allocator.95" = type { i8 }

; Function Attrs: mustprogress nounwind uwtable
define linkonce_odr dso_local void @_ZN4node14MemoryRetainerC2Ev(ptr noundef nonnull align 8 dereferenceable(8) %this) unnamed_addr #4 comdat align 2 {
entry:
  %this.addr = alloca ptr, align 8
  store ptr %this, ptr %this.addr, align 8
  %this1 = load ptr, ptr %this.addr, align 8
  store ptr getelementptr inbounds ({ [10 x ptr] }, ptr @_ZTVN4node14MemoryRetainerE, i32 0, i32 0, i32 2), ptr %this1, align 8
  ret void
}

; Function Attrs: mustprogress nounwind uwtable
define dso_local void @_ZN4node4quic9QuicErrorC2EPK29ngtcp2_connection_close_error(ptr noundef nonnull align 8 dereferenceable(88) %this, ptr noundef %ptr) unnamed_addr #4 align 2 {
entry:
  %this.addr = alloca ptr, align 8
  %ptr.addr = alloca ptr, align 8
  %ref.tmp = alloca %"class.std::allocator.95", align 1
  store ptr %this, ptr %this.addr, align 8
  store ptr %ptr, ptr %ptr.addr, align 8
  %this1 = load ptr, ptr %this.addr, align 8
  call void @_ZN4node14MemoryRetainerC2Ev(ptr noundef nonnull align 8 dereferenceable(8) %this1) #3
  store ptr getelementptr inbounds ({ [10 x ptr] }, ptr @_ZTVN4node4quic9QuicErrorE, i32 0, i32 0, i32 2), ptr %this1, align 8
  %reason_ = getelementptr inbounds %"class.node::quic::QuicError", ptr %this1, i32 0, i32 1
  %0 = load ptr, ptr %ptr.addr, align 8
  %reason = getelementptr inbounds %struct.ngtcp2_connection_close_error, ptr %0, i32 0, i32 3
  %1 = load ptr, ptr %reason, align 8
  %2 = load ptr, ptr %ptr.addr, align 8
  %reasonlen = getelementptr inbounds %struct.ngtcp2_connection_close_error, ptr %2, i32 0, i32 4
  %3 = load i64, ptr %reasonlen, align 8
  call void @_ZNSaIcEC1Ev(ptr noundef nonnull align 1 dereferenceable(1) %ref.tmp) #3
  call void @_ZNSt7__cxx1112basic_stringIcSt11char_traitsIcESaIcEEC1EPKcmRKS3_(ptr noundef nonnull align 8 dereferenceable(32) %reason_, ptr noundef %1, i64 noundef %3, ptr noundef nonnull align 1 dereferenceable(1) %ref.tmp)
  call void @_ZNSaIcED1Ev(ptr noundef nonnull align 1 dereferenceable(1) %ref.tmp) #3
  %error_ = getelementptr inbounds %"class.node::quic::QuicError", ptr %this1, i32 0, i32 2
  call void @llvm.memset.p0.i64(ptr align 8 %error_, i8 0, i64 40, i1 false)
  %ptr_ = getelementptr inbounds %"class.node::quic::QuicError", ptr %this1, i32 0, i32 3
  %4 = load ptr, ptr %ptr.addr, align 8
  store ptr %4, ptr %ptr_, align 8
  ret void
}