; Function Attrs: mustprogress nounwind uwtable
define dso_local void @_ZN4node4quic9QuicErrorC2EPK29ngtcp2_connection_close_error(ptr noundef nonnull align 8 dereferenceable(88) %this, ptr noundef %ptr) unnamed_addr #3 align 2 {
entry:
  %ref.tmp = alloca %"class.std::allocator.95", align 1
  store ptr getelementptr inbounds ({ [10 x ptr] }, ptr @_ZTVN4node4quic9QuicErrorE, i64 0, i32 0, i64 2), ptr %this, align 8
  %reason_ = getelementptr inbounds i8, ptr %this, i64 8
  %reason = getelementptr inbounds i8, ptr %ptr, i64 24
  %0 = load ptr, ptr %reason, align 8
  %reasonlen = getelementptr inbounds i8, ptr %ptr, i64 32
  %1 = load i64, ptr %reasonlen, align 8
  call void @_ZNSaIcEC1Ev(ptr noundef nonnull align 1 dereferenceable(1) %ref.tmp) #16
  call void @_ZNSt7__cxx1112basic_stringIcSt11char_traitsIcESaIcEEC1EPKcmRKS3_(ptr noundef nonnull align 8 dereferenceable(32) %reason_, ptr noundef %0, i64 noundef %1, ptr noundef nonnull align 1 dereferenceable(1) %ref.tmp) #16
  call void @_ZNSaIcED1Ev(ptr noundef nonnull align 1 dereferenceable(1) %ref.tmp) #16
  %error_ = getelementptr inbounds i8, ptr %this, i64 40
  call void @llvm.memset.p0.i64(ptr noundef nonnull align 8 dereferenceable(40) %error_, i8 0, i64 40, i1 false)
  %ptr_ = getelementptr inbounds i8, ptr %this, i64 80
  store ptr %ptr, ptr %ptr_, align 8
  ret void
}